target datalayout = "e-m:e-p270:32:32-p271:32:32-p272:64:64-i64:64-i128:128-f80:128-n8:16:32:64-S128"
target triple = "x86_64-pc-linux-gnu"

%struct.lua_State = type { i8, i8, i8, i8, i8, i8, i8, ptr, ptr, ptr, ptr, ptr, ptr, ptr, ptr, i32, i32, i16, i16, i32, ptr, ptr, ptr, ptr, ptr }
%struct.global_State = type { %struct.stringtable, ptr, ptr, i8, i8, ptr, ptr, ptr, i64, i64, i32, i32, i32, [40 x ptr], [40 x ptr], ptr, ptr, ptr, [256 x i64], ptr, %struct.UpVal, [11 x ptr], [11 x ptr], [21 x ptr], %struct.lua_TValue, %struct.lua_TValue, i32, ptr, i64, [4 x i64], %struct.lua_Callbacks, %struct.lua_ExecutionCallbacks, [128 x ptr], [128 x ptr], [128 x ptr], %struct.GCStats }
%struct.stringtable = type { ptr, i32, i32 }
%struct.UpVal = type { i8, i8, i8, i8, ptr, %union.anon }
%union.anon = type { %struct.anon }
%struct.anon = type { ptr, ptr, ptr }
%struct.lua_TValue = type { %union.Value, [1 x i32], i32 }
%union.Value = type { ptr }
%struct.lua_Callbacks = type { ptr, ptr, ptr, ptr, ptr, ptr, ptr, ptr, ptr }
%struct.lua_ExecutionCallbacks = type { ptr, ptr, ptr, ptr, ptr, ptr, ptr }
%struct.GCStats = type { [32 x i32], i32, i32, i64, i64, i64, double, double, double }
%struct.LG = type { %struct.lua_State, %struct.global_State }

; Function Attrs: mustprogress nounwind uwtable
define linkonce_odr dso_local void @_ZN7GCStatsC2Ev(ptr noundef nonnull align 8 dereferenceable(184) %0) unnamed_addr #2 comdat align 2 {
  %2 = alloca ptr, align 8
  store ptr %0, ptr %2, align 8
  %3 = load ptr, ptr %2, align 8
  %4 = getelementptr inbounds %struct.GCStats, ptr %3, i32 0, i32 0
  store i32 0, ptr %4, align 4
  %5 = getelementptr inbounds i32, ptr %4, i64 1
  %6 = getelementptr inbounds i32, ptr %4, i64 32
  br label %7

7:                                                ; preds = %7, %1
  %8 = phi ptr [ %5, %1 ], [ %9, %7 ]
  store i32 0, ptr %8, align 4
  %9 = getelementptr inbounds i32, ptr %8, i64 1
  %10 = icmp eq ptr %9, %6
  br i1 %10, label %11, label %7

11:                                               ; preds = %7
  %12 = getelementptr inbounds %struct.GCStats, ptr %3, i32 0, i32 1
  store i32 0, ptr %12, align 8
  %13 = getelementptr inbounds %struct.GCStats, ptr %3, i32 0, i32 2
  store i32 0, ptr %13, align 4
  %14 = getelementptr inbounds %struct.GCStats, ptr %3, i32 0, i32 3
  store i64 0, ptr %14, align 8
  %15 = getelementptr inbounds %struct.GCStats, ptr %3, i32 0, i32 4
  store i64 0, ptr %15, align 8
  %16 = getelementptr inbounds %struct.GCStats, ptr %3, i32 0, i32 5
  store i64 0, ptr %16, align 8
  %17 = getelementptr inbounds %struct.GCStats, ptr %3, i32 0, i32 6
  store double 0.000000e+00, ptr %17, align 8
  %18 = getelementptr inbounds %struct.GCStats, ptr %3, i32 0, i32 7
  store double 0.000000e+00, ptr %18, align 8
  %19 = getelementptr inbounds %struct.GCStats, ptr %3, i32 0, i32 8
  store double 0.000000e+00, ptr %19, align 8
  ret void
}

; Function Attrs: mustprogress nounwind uwtable
define internal void @_ZL13preinit_stateP9lua_StateP12global_State(ptr noundef %0, ptr noundef %1) #2 {
  %3 = alloca ptr, align 8
  %4 = alloca ptr, align 8
  store ptr %0, ptr %3, align 8
  store ptr %1, ptr %4, align 8
  %5 = load ptr, ptr %4, align 8
  %6 = load ptr, ptr %3, align 8
  %7 = getelementptr inbounds %struct.lua_State, ptr %6, i32 0, i32 9
  store ptr %5, ptr %7, align 8
  %8 = load ptr, ptr %3, align 8
  %9 = getelementptr inbounds %struct.lua_State, ptr %8, i32 0, i32 12
  store ptr null, ptr %9, align 8
  %10 = load ptr, ptr %3, align 8
  %11 = getelementptr inbounds %struct.lua_State, ptr %10, i32 0, i32 15
  store i32 0, ptr %11, align 8
  %12 = load ptr, ptr %3, align 8
  %13 = getelementptr inbounds %struct.lua_State, ptr %12, i32 0, i32 20
  store ptr null, ptr %13, align 8
  %14 = load ptr, ptr %3, align 8
  %15 = getelementptr inbounds %struct.lua_State, ptr %14, i32 0, i32 21
  store ptr null, ptr %15, align 8
  %16 = load ptr, ptr %3, align 8
  %17 = getelementptr inbounds %struct.lua_State, ptr %16, i32 0, i32 16
  store i32 0, ptr %17, align 4
  %18 = load ptr, ptr %3, align 8
  %19 = getelementptr inbounds %struct.lua_State, ptr %18, i32 0, i32 18
  store i16 0, ptr %19, align 2
  %20 = load ptr, ptr %3, align 8
  %21 = getelementptr inbounds %struct.lua_State, ptr %20, i32 0, i32 17
  store i16 0, ptr %21, align 8
  %22 = load ptr, ptr %3, align 8
  %23 = getelementptr inbounds %struct.lua_State, ptr %22, i32 0, i32 3
  store i8 0, ptr %23, align 1
  %24 = load ptr, ptr %3, align 8
  %25 = getelementptr inbounds %struct.lua_State, ptr %24, i32 0, i32 10
  store ptr null, ptr %25, align 8
  %26 = load ptr, ptr %3, align 8
  %27 = getelementptr inbounds %struct.lua_State, ptr %26, i32 0, i32 14
  store ptr null, ptr %27, align 8
  %28 = load ptr, ptr %3, align 8
  %29 = getelementptr inbounds %struct.lua_State, ptr %28, i32 0, i32 23
  store ptr null, ptr %29, align 8
  %30 = load ptr, ptr %3, align 8
  %31 = getelementptr inbounds %struct.lua_State, ptr %30, i32 0, i32 19
  store i32 0, ptr %31, align 4
  %32 = load ptr, ptr %3, align 8
  %33 = getelementptr inbounds %struct.lua_State, ptr %32, i32 0, i32 6
  store i8 0, ptr %33, align 2
  %34 = load ptr, ptr %3, align 8
  %35 = getelementptr inbounds %struct.lua_State, ptr %34, i32 0, i32 5
  store i8 0, ptr %35, align 1
  %36 = load ptr, ptr %3, align 8
  %37 = getelementptr inbounds %struct.lua_State, ptr %36, i32 0, i32 4
  store i8 0, ptr %37, align 4
  %38 = load ptr, ptr %3, align 8
  %39 = getelementptr inbounds %struct.lua_State, ptr %38, i32 0, i32 24
  store ptr null, ptr %39, align 8
  ret void
}

; Function Attrs: mustprogress uwtable
define dso_local noundef ptr @_Z12lua_newstatePFPvS_S_mmES_(ptr noundef %0, ptr noundef %1) #0 {
  %3 = alloca ptr, align 8
  %4 = alloca ptr, align 8
  %5 = alloca ptr, align 8
  %6 = alloca i32, align 4
  %7 = alloca ptr, align 8
  %8 = alloca ptr, align 8
  %9 = alloca ptr, align 8
  %10 = alloca %struct.lua_Callbacks, align 8
  %11 = alloca %struct.lua_ExecutionCallbacks, align 8
  %12 = alloca %struct.GCStats, align 8
  store ptr %0, ptr %4, align 8
  store ptr %1, ptr %5, align 8
  %13 = load ptr, ptr %4, align 8
  %14 = load ptr, ptr %5, align 8
  %15 = call noundef ptr %13(ptr noundef %14, ptr noundef null, i64 noundef 0, i64 noundef 6800)
  store ptr %15, ptr %9, align 8
  %16 = load ptr, ptr %9, align 8
  %17 = icmp eq ptr %16, null
  br i1 %17, label %18, label %19

18:                                               ; preds = %2
  store ptr null, ptr %3, align 8
  br label %204

19:                                               ; preds = %2
  %20 = load ptr, ptr %9, align 8
  store ptr %20, ptr %7, align 8
  %21 = load ptr, ptr %7, align 8
  %22 = getelementptr inbounds %struct.LG, ptr %21, i32 0, i32 1
  store ptr %22, ptr %8, align 8
  %23 = load ptr, ptr %7, align 8
  %24 = getelementptr inbounds %struct.lua_State, ptr %23, i32 0, i32 0
  store i8 9, ptr %24, align 8
  %25 = load ptr, ptr %8, align 8
  %26 = getelementptr inbounds %struct.global_State, ptr %25, i32 0, i32 3
  store i8 9, ptr %26, align 8
  %27 = load ptr, ptr %7, align 8
  %28 = getelementptr inbounds %struct.lua_State, ptr %27, i32 0, i32 1
  store i8 9, ptr %28, align 1
  %29 = load ptr, ptr %7, align 8
  %30 = getelementptr inbounds %struct.lua_State, ptr %29, i32 0, i32 2
  store i8 0, ptr %30, align 2
  %31 = load ptr, ptr %7, align 8
  %32 = load ptr, ptr %8, align 8
  call void @_ZL13preinit_stateP9lua_StateP12global_State(ptr noundef %31, ptr noundef %32)
  %33 = load ptr, ptr %4, align 8
  %34 = load ptr, ptr %8, align 8
  %35 = getelementptr inbounds %struct.global_State, ptr %34, i32 0, i32 1
  store ptr %33, ptr %35, align 8
  %36 = load ptr, ptr %5, align 8
  %37 = load ptr, ptr %8, align 8
  %38 = getelementptr inbounds %struct.global_State, ptr %37, i32 0, i32 2
  store ptr %36, ptr %38, align 8
  %39 = load ptr, ptr %7, align 8
  %40 = load ptr, ptr %8, align 8
  %41 = getelementptr inbounds %struct.global_State, ptr %40, i32 0, i32 19
  store ptr %39, ptr %41, align 8
  %42 = load ptr, ptr %8, align 8
  %43 = getelementptr inbounds %struct.global_State, ptr %42, i32 0, i32 20
  %44 = load ptr, ptr %8, align 8
  %45 = getelementptr inbounds %struct.global_State, ptr %44, i32 0, i32 20
  %46 = getelementptr inbounds %struct.UpVal, ptr %45, i32 0, i32 5
  %47 = getelementptr inbounds %struct.anon, ptr %46, i32 0, i32 0
  store ptr %43, ptr %47, align 8
  %48 = load ptr, ptr %8, align 8
  %49 = getelementptr inbounds %struct.global_State, ptr %48, i32 0, i32 20
  %50 = load ptr, ptr %8, align 8
  %51 = getelementptr inbounds %struct.global_State, ptr %50, i32 0, i32 20
  %52 = getelementptr inbounds %struct.UpVal, ptr %51, i32 0, i32 5
  %53 = getelementptr inbounds %struct.anon, ptr %52, i32 0, i32 1
  store ptr %49, ptr %53, align 8
  %54 = load ptr, ptr %8, align 8
  %55 = getelementptr inbounds %struct.global_State, ptr %54, i32 0, i32 8
  store i64 0, ptr %55, align 8
  %56 = load ptr, ptr %8, align 8
  %57 = getelementptr inbounds %struct.global_State, ptr %56, i32 0, i32 26
  store i32 0, ptr %57, align 8
  %58 = load ptr, ptr %8, align 8
  %59 = getelementptr inbounds %struct.global_State, ptr %58, i32 0, i32 27
  store ptr null, ptr %59, align 8
  %60 = load ptr, ptr %8, align 8
  %61 = getelementptr inbounds %struct.global_State, ptr %60, i32 0, i32 28
  store i64 0, ptr %61, align 8
  %62 = load ptr, ptr %8, align 8
  %63 = getelementptr inbounds %struct.global_State, ptr %62, i32 0, i32 29
  %64 = getelementptr inbounds [4 x i64], ptr %63, i64 0, i64 0
  store i64 1, ptr %64, align 8
  %65 = load ptr, ptr %8, align 8
  %66 = getelementptr inbounds %struct.global_State, ptr %65, i32 0, i32 29
  %67 = getelementptr inbounds [4 x i64], ptr %66, i64 0, i64 1
  store i64 0, ptr %67, align 8
  %68 = load ptr, ptr %8, align 8
  %69 = getelementptr inbounds %struct.global_State, ptr %68, i32 0, i32 29
  %70 = getelementptr inbounds [4 x i64], ptr %69, i64 0, i64 2
  store i64 0, ptr %70, align 8
  %71 = load ptr, ptr %8, align 8
  %72 = getelementptr inbounds %struct.global_State, ptr %71, i32 0, i32 29
  %73 = getelementptr inbounds [4 x i64], ptr %72, i64 0, i64 3
  store i64 0, ptr %73, align 8
  %74 = load ptr, ptr %8, align 8
  %75 = getelementptr inbounds %struct.global_State, ptr %74, i32 0, i32 0
  %76 = getelementptr inbounds %struct.stringtable, ptr %75, i32 0, i32 2
  store i32 0, ptr %76, align 4
  %77 = load ptr, ptr %8, align 8
  %78 = getelementptr inbounds %struct.global_State, ptr %77, i32 0, i32 0
  %79 = getelementptr inbounds %struct.stringtable, ptr %78, i32 0, i32 1
  store i32 0, ptr %79, align 8
  %80 = load ptr, ptr %8, align 8
  %81 = getelementptr inbounds %struct.global_State, ptr %80, i32 0, i32 0
  %82 = getelementptr inbounds %struct.stringtable, ptr %81, i32 0, i32 0
  store ptr null, ptr %82, align 8
  %83 = load ptr, ptr %8, align 8
  %84 = getelementptr inbounds %struct.global_State, ptr %83, i32 0, i32 24
  %85 = getelementptr inbounds %struct.lua_TValue, ptr %84, i32 0, i32 2
  store i32 0, ptr %85, align 4
  %86 = load ptr, ptr %7, align 8
  %87 = getelementptr inbounds %struct.lua_State, ptr %86, i32 0, i32 9
  %88 = load ptr, ptr %87, align 8
  %89 = getelementptr inbounds %struct.global_State, ptr %88, i32 0, i32 25
  %90 = getelementptr inbounds %struct.lua_TValue, ptr %89, i32 0, i32 2
  store i32 0, ptr %90, align 4
  %91 = load ptr, ptr %8, align 8
  %92 = getelementptr inbounds %struct.global_State, ptr %91, i32 0, i32 4
  store i8 0, ptr %92, align 1
  %93 = load ptr, ptr %8, align 8
  %94 = getelementptr inbounds %struct.global_State, ptr %93, i32 0, i32 5
  store ptr null, ptr %94, align 8
  %95 = load ptr, ptr %8, align 8
  %96 = getelementptr inbounds %struct.global_State, ptr %95, i32 0, i32 6
  store ptr null, ptr %96, align 8
  %97 = load ptr, ptr %8, align 8
  %98 = getelementptr inbounds %struct.global_State, ptr %97, i32 0, i32 7
  store ptr null, ptr %98, align 8
  %99 = load ptr, ptr %8, align 8
  %100 = getelementptr inbounds %struct.global_State, ptr %99, i32 0, i32 9
  store i64 6800, ptr %100, align 8
  %101 = load ptr, ptr %8, align 8
  %102 = getelementptr inbounds %struct.global_State, ptr %101, i32 0, i32 10
  store i32 200, ptr %102, align 8
  %103 = load ptr, ptr %8, align 8
  %104 = getelementptr inbounds %struct.global_State, ptr %103, i32 0, i32 11
  store i32 200, ptr %104, align 4
  %105 = load ptr, ptr %8, align 8
  %106 = getelementptr inbounds %struct.global_State, ptr %105, i32 0, i32 12
  store i32 1024, ptr %106, align 8
  store i32 0, ptr %6, align 4
  br label %107

107:                                              ; preds = %121, %19
  %108 = load i32, ptr %6, align 4
  %109 = icmp slt i32 %108, 40
  br i1 %109, label %110, label %124

110:                                              ; preds = %107
  %111 = load ptr, ptr %8, align 8
  %112 = getelementptr inbounds %struct.global_State, ptr %111, i32 0, i32 13
  %113 = load i32, ptr %6, align 4
  %114 = sext i32 %113 to i64
  %115 = getelementptr inbounds [40 x ptr], ptr %112, i64 0, i64 %114
  store ptr null, ptr %115, align 8
  %116 = load ptr, ptr %8, align 8
  %117 = getelementptr inbounds %struct.global_State, ptr %116, i32 0, i32 14
  %118 = load i32, ptr %6, align 4
  %119 = sext i32 %118 to i64
  %120 = getelementptr inbounds [40 x ptr], ptr %117, i64 0, i64 %119
  store ptr null, ptr %120, align 8
  br label %121

121:                                              ; preds = %110
  %122 = load i32, ptr %6, align 4
  %123 = add nsw i32 %122, 1
  store i32 %123, ptr %6, align 4
  br label %107, !llvm.loop !8

124:                                              ; preds = %107
  %125 = load ptr, ptr %8, align 8
  %126 = getelementptr inbounds %struct.global_State, ptr %125, i32 0, i32 15
  store ptr null, ptr %126, align 8
  %127 = load ptr, ptr %8, align 8
  %128 = getelementptr inbounds %struct.global_State, ptr %127, i32 0, i32 16
  store ptr null, ptr %128, align 8
  %129 = load ptr, ptr %8, align 8
  %130 = getelementptr inbounds %struct.global_State, ptr %129, i32 0, i32 17
  store ptr null, ptr %130, align 8
  store i32 0, ptr %6, align 4
  br label %131

131:                                              ; preds = %140, %124
  %132 = load i32, ptr %6, align 4
  %133 = icmp slt i32 %132, 11
  br i1 %133, label %134, label %143

134:                                              ; preds = %131
  %135 = load ptr, ptr %8, align 8
  %136 = getelementptr inbounds %struct.global_State, ptr %135, i32 0, i32 21
  %137 = load i32, ptr %6, align 4
  %138 = sext i32 %137 to i64
  %139 = getelementptr inbounds [11 x ptr], ptr %136, i64 0, i64 %138
  store ptr null, ptr %139, align 8
  br label %140

140:                                              ; preds = %134
  %141 = load i32, ptr %6, align 4
  %142 = add nsw i32 %141, 1
  store i32 %142, ptr %6, align 4
  br label %131, !llvm.loop !9

143:                                              ; preds = %131
  store i32 0, ptr %6, align 4
  br label %144

144:                                              ; preds = %158, %143
  %145 = load i32, ptr %6, align 4
  %146 = icmp slt i32 %145, 128
  br i1 %146, label %147, label %161

147:                                              ; preds = %144
  %148 = load ptr, ptr %8, align 8
  %149 = getelementptr inbounds %struct.global_State, ptr %148, i32 0, i32 32
  %150 = load i32, ptr %6, align 4
  %151 = sext i32 %150 to i64
  %152 = getelementptr inbounds [128 x ptr], ptr %149, i64 0, i64 %151
  store ptr null, ptr %152, align 8
  %153 = load ptr, ptr %8, align 8
  %154 = getelementptr inbounds %struct.global_State, ptr %153, i32 0, i32 33
  %155 = load i32, ptr %6, align 4
  %156 = sext i32 %155 to i64
  %157 = getelementptr inbounds [128 x ptr], ptr %154, i64 0, i64 %156
  store ptr null, ptr %157, align 8
  br label %158

158:                                              ; preds = %147
  %159 = load i32, ptr %6, align 4
  %160 = add nsw i32 %159, 1
  store i32 %160, ptr %6, align 4
  br label %144, !llvm.loop !10

161:                                              ; preds = %144
  store i32 0, ptr %6, align 4
  br label %162

162:                                              ; preds = %171, %161
  %163 = load i32, ptr %6, align 4
  %164 = icmp slt i32 %163, 128
  br i1 %164, label %165, label %174

165:                                              ; preds = %162
  %166 = load ptr, ptr %8, align 8
  %167 = getelementptr inbounds %struct.global_State, ptr %166, i32 0, i32 34
  %168 = load i32, ptr %6, align 4
  %169 = sext i32 %168 to i64
  %170 = getelementptr inbounds [128 x ptr], ptr %167, i64 0, i64 %169
  store ptr null, ptr %170, align 8
  br label %171

171:                                              ; preds = %165
  %172 = load i32, ptr %6, align 4
  %173 = add nsw i32 %172, 1
  store i32 %173, ptr %6, align 4
  br label %162, !llvm.loop !11

174:                                              ; preds = %162
  store i32 0, ptr %6, align 4
  br label %175

175:                                              ; preds = %184, %174
  %176 = load i32, ptr %6, align 4
  %177 = icmp slt i32 %176, 256
  br i1 %177, label %178, label %187

178:                                              ; preds = %175
  %179 = load ptr, ptr %8, align 8
  %180 = getelementptr inbounds %struct.global_State, ptr %179, i32 0, i32 18
  %181 = load i32, ptr %6, align 4
  %182 = sext i32 %181 to i64
  %183 = getelementptr inbounds [256 x i64], ptr %180, i64 0, i64 %182
  store i64 0, ptr %183, align 8
  br label %184

184:                                              ; preds = %178
  %185 = load i32, ptr %6, align 4
  %186 = add nsw i32 %185, 1
  store i32 %186, ptr %6, align 4
  br label %175, !llvm.loop !12

187:                                              ; preds = %175
  %188 = load ptr, ptr %8, align 8
  %189 = getelementptr inbounds %struct.global_State, ptr %188, i32 0, i32 18
  %190 = getelementptr inbounds [256 x i64], ptr %189, i64 0, i64 0
  store i64 6800, ptr %190, align 8
  call void @llvm.memset.p0.i64(ptr align 8 %10, i8 0, i64 72, i1 false)
  %191 = load ptr, ptr %8, align 8
  %192 = getelementptr inbounds %struct.global_State, ptr %191, i32 0, i32 30
  call void @llvm.memcpy.p0.p0.i64(ptr align 8 %192, ptr align 8 %10, i64 72, i1 false)
  call void @llvm.memset.p0.i64(ptr align 8 %11, i8 0, i64 56, i1 false)
  %193 = load ptr, ptr %8, align 8
  %194 = getelementptr inbounds %struct.global_State, ptr %193, i32 0, i32 31
  call void @llvm.memcpy.p0.p0.i64(ptr align 8 %194, ptr align 8 %11, i64 56, i1 false)
  call void @llvm.memset.p0.i64(ptr align 8 %12, i8 0, i64 184, i1 false)
  call void @_ZN7GCStatsC2Ev(ptr noundef nonnull align 8 dereferenceable(184) %12) #5
  %195 = load ptr, ptr %8, align 8
  %196 = getelementptr inbounds %struct.global_State, ptr %195, i32 0, i32 35
  call void @llvm.memcpy.p0.p0.i64(ptr align 8 %196, ptr align 8 %12, i64 184, i1 false)
  %197 = load ptr, ptr %7, align 8
  %198 = call noundef i32 @_Z20luaD_rawrunprotectedP9lua_StatePFvS0_PvES1_(ptr noundef %197, ptr noundef @_ZL9f_luaopenP9lua_StatePv, ptr noundef null)
  %199 = icmp ne i32 %198, 0
  br i1 %199, label %200, label %202

200:                                              ; preds = %187
  %201 = load ptr, ptr %7, align 8
  call void @_ZL11close_stateP9lua_State(ptr noundef %201)
  store ptr null, ptr %7, align 8
  br label %202

202:                                              ; preds = %200, %187
  %203 = load ptr, ptr %7, align 8
  store ptr %203, ptr %3, align 8
  br label %204

204:                                              ; preds = %202, %18
  %205 = load ptr, ptr %3, align 8
  ret ptr %205
}