; Function Attrs: mustprogress uwtable
define dso_local noundef ptr @_Z12lua_newstatePFPvS_S_mmES_(ptr noundef %0, ptr noundef %1) local_unnamed_addr #0 {
  %3 = tail call noundef ptr %0(ptr noundef %1, ptr noundef null, i64 noundef 0, i64 noundef 6800)
  %4 = icmp eq ptr %3, null
  br i1 %4, label %43, label %.preheader80

.preheader80:                                     ; preds = %2
  %5 = getelementptr inbounds nuw i8, ptr %3, i64 128
  store i8 9, ptr %3, align 8
  %6 = getelementptr inbounds nuw i8, ptr %3, i64 160
  store i8 9, ptr %6, align 8
  %7 = getelementptr inbounds nuw i8, ptr %3, i64 1
  store i8 9, ptr %7, align 1
  %8 = getelementptr inbounds nuw i8, ptr %3, i64 2
  store i8 0, ptr %8, align 2
  %9 = getelementptr inbounds nuw i8, ptr %3, i64 24
  store ptr %5, ptr %9, align 8
  %10 = getelementptr inbounds nuw i8, ptr %3, i64 48
  store ptr null, ptr %10, align 8
  %11 = getelementptr inbounds nuw i8, ptr %3, i64 3
  %12 = getelementptr inbounds nuw i8, ptr %3, i64 32
  store ptr null, ptr %12, align 8
  %13 = getelementptr inbounds nuw i8, ptr %3, i64 64
  %14 = getelementptr inbounds nuw i8, ptr %3, i64 112
  store i32 0, ptr %11, align 1
  tail call void @llvm.memset.p0.i64(ptr noundef nonnull align 8 dereferenceable(40) %13, i8 0, i64 40, i1 false)
  tail call void @llvm.memset.p0.i64(ptr noundef nonnull align 8 dereferenceable(16) %14, i8 0, i64 16, i1 false)
  %15 = getelementptr inbounds nuw i8, ptr %3, i64 144
  store ptr %0, ptr %15, align 8
  %16 = getelementptr inbounds nuw i8, ptr %3, i64 152
  store ptr %1, ptr %16, align 8
  %17 = getelementptr inbounds nuw i8, ptr %3, i64 2936
  store ptr %3, ptr %17, align 8
  %18 = getelementptr inbounds nuw i8, ptr %3, i64 2944
  %19 = getelementptr inbounds nuw i8, ptr %3, i64 2960
  store ptr %18, ptr %19, align 8
  %20 = getelementptr inbounds nuw i8, ptr %3, i64 2968
  store ptr %18, ptr %20, align 8
  %21 = getelementptr inbounds nuw i8, ptr %3, i64 192
  store i64 0, ptr %21, align 8
  %22 = getelementptr inbounds nuw i8, ptr %3, i64 3360
  store i32 0, ptr %22, align 8
  %23 = getelementptr inbounds nuw i8, ptr %3, i64 3368
  %24 = getelementptr inbounds nuw i8, ptr %3, i64 3384
  tail call void @llvm.memset.p0.i64(ptr noundef nonnull align 8 dereferenceable(16) %23, i8 0, i64 16, i1 false)
  store i64 1, ptr %24, align 8
  %25 = getelementptr inbounds nuw i8, ptr %3, i64 3392
  %26 = getelementptr inbounds nuw i8, ptr %3, i64 3340
  store i32 0, ptr %26, align 4
  %27 = getelementptr inbounds nuw i8, ptr %3, i64 3356
  store i32 0, ptr %27, align 4
  %28 = getelementptr inbounds nuw i8, ptr %3, i64 161
  store i8 0, ptr %28, align 1
  %29 = getelementptr inbounds nuw i8, ptr %3, i64 168
  %30 = getelementptr inbounds nuw i8, ptr %3, i64 200
  tail call void @llvm.memset.p0.i64(ptr noundef nonnull align 8 dereferenceable(16) %5, i8 0, i64 16, i1 false)
  tail call void @llvm.memset.p0.i64(ptr noundef nonnull align 8 dereferenceable(24) %29, i8 0, i64 24, i1 false)
  tail call void @llvm.memset.p0.i64(ptr noundef nonnull align 8 dereferenceable(24) %25, i8 0, i64 24, i1 false)
  store i64 6800, ptr %30, align 8
  %31 = getelementptr inbounds nuw i8, ptr %3, i64 208
  store i32 200, ptr %31, align 8
  %32 = getelementptr inbounds nuw i8, ptr %3, i64 212
  store i32 200, ptr %32, align 4
  %33 = getelementptr inbounds nuw i8, ptr %3, i64 216
  store i32 1024, ptr %33, align 8
  %34 = getelementptr inbounds nuw i8, ptr %3, i64 224
  %35 = getelementptr inbounds nuw i8, ptr %3, i64 2984
  tail call void @llvm.memset.p0.i64(ptr noundef nonnull align 8 dereferenceable(88) %35, i8 0, i64 88, i1 false)
  %36 = getelementptr inbounds nuw i8, ptr %3, i64 3544
  %37 = getelementptr inbounds nuw i8, ptr %3, i64 888
  tail call void @llvm.memset.p0.i64(ptr noundef nonnull align 8 dereferenceable(2712) %34, i8 0, i64 2712, i1 false)
  tail call void @llvm.memset.p0.i64(ptr noundef nonnull align 8 dereferenceable(3072) %36, i8 0, i64 3072, i1 false)
  store i64 6800, ptr %37, align 8
  %38 = getelementptr inbounds nuw i8, ptr %3, i64 3416
  tail call void @llvm.memset.p0.i64(ptr noundef nonnull align 8 dereferenceable(72) %38, i8 0, i64 72, i1 false)
  %39 = getelementptr inbounds nuw i8, ptr %3, i64 3488
  tail call void @llvm.memset.p0.i64(ptr noundef nonnull align 8 dereferenceable(56) %39, i8 0, i64 56, i1 false)
  %40 = getelementptr inbounds nuw i8, ptr %3, i64 6616
  tail call void @llvm.memset.p0.i64(ptr noundef nonnull align 8 dereferenceable(184) %40, i8 0, i64 184, i1 false)
  %41 = tail call noundef i32 @_Z20luaD_rawrunprotectedP9lua_StatePFvS0_PvES1_(ptr noundef nonnull %3, ptr noundef nonnull @_ZL9f_luaopenP9lua_StatePv, ptr noundef null)
  %.not = icmp eq i32 %41, 0
  br i1 %.not, label %43, label %42

42:                                               ; preds = %.preheader80
  tail call fastcc void @_ZL11close_stateP9lua_State(ptr noundef nonnull %3)
  br label %43

43:                                               ; preds = %.preheader80, %42, %2
  %.0 = phi ptr [ null, %2 ], [ null, %42 ], [ %3, %.preheader80 ]
  ret ptr %.0
}